target datalayout = "e-m:e-p270:32:32-p271:32:32-p272:64:64-i64:64-i128:128-f80:128-n8:16:32:64-S128"
target triple = "x86_64-pc-linux-gnu"

%struct.WaitEventSet = type { ptr, i32, i32, ptr, ptr, i32, i8, i32, ptr }
%struct.WaitEvent = type { i32, i32, i32, ptr }
%struct.epoll_event = type <{ i32, %union.epoll_data }>
%union.epoll_data = type { ptr }

@.str.1 = private unnamed_addr constant [8 x i8] c"latch.c\00", align 1
@.str.13 = private unnamed_addr constant [16 x i8] c"%s() failed: %m\00", align 1
@.str.14 = private unnamed_addr constant [10 x i8] c"epoll_ctl\00", align 1
@__func__.WaitEventAdjustEpoll = private unnamed_addr constant [21 x i8] c"WaitEventAdjustEpoll\00", align 1

; Function Attrs: nounwind uwtable
define internal void @WaitEventAdjustEpoll(ptr noundef %0, ptr noundef %1, i32 noundef %2) #0 {
  %4 = alloca ptr, align 8
  %5 = alloca ptr, align 8
  %6 = alloca i32, align 4
  %7 = alloca %struct.epoll_event, align 1
  %8 = alloca i32, align 4
  store ptr %0, ptr %4, align 8
  store ptr %1, ptr %5, align 8
  store i32 %2, ptr %6, align 4
  call void @llvm.lifetime.start.p0(i64 12, ptr %7) #9
  call void @llvm.lifetime.start.p0(i64 4, ptr %8) #9
  %9 = load ptr, ptr %5, align 8
  %10 = getelementptr inbounds nuw %struct.epoll_event, ptr %7, i32 0, i32 1
  store ptr %9, ptr %10, align 1
  %11 = getelementptr inbounds nuw %struct.epoll_event, ptr %7, i32 0, i32 0
  store i32 24, ptr %11, align 1
  %12 = load ptr, ptr %5, align 8
  %13 = getelementptr inbounds nuw %struct.WaitEvent, ptr %12, i32 0, i32 1
  %14 = load i32, ptr %13, align 4
  %15 = icmp eq i32 %14, 1
  br i1 %15, label %16, label %20

16:                                               ; preds = %3
  %17 = getelementptr inbounds nuw %struct.epoll_event, ptr %7, i32 0, i32 0
  %18 = load i32, ptr %17, align 1
  %19 = or i32 %18, 1
  store i32 %19, ptr %17, align 1
  br label %61

20:                                               ; preds = %3
  %21 = load ptr, ptr %5, align 8
  %22 = getelementptr inbounds nuw %struct.WaitEvent, ptr %21, i32 0, i32 1
  %23 = load i32, ptr %22, align 4
  %24 = icmp eq i32 %23, 16
  br i1 %24, label %25, label %29

25:                                               ; preds = %20
  %26 = getelementptr inbounds nuw %struct.epoll_event, ptr %7, i32 0, i32 0
  %27 = load i32, ptr %26, align 1
  %28 = or i32 %27, 1
  store i32 %28, ptr %26, align 1
  br label %60

29:                                               ; preds = %20
  %30 = load ptr, ptr %5, align 8
  %31 = getelementptr inbounds nuw %struct.WaitEvent, ptr %30, i32 0, i32 1
  %32 = load i32, ptr %31, align 4
  %33 = and i32 %32, 2
  %34 = icmp ne i32 %33, 0
  br i1 %34, label %35, label %39

35:                                               ; preds = %29
  %36 = getelementptr inbounds nuw %struct.epoll_event, ptr %7, i32 0, i32 0
  %37 = load i32, ptr %36, align 1
  %38 = or i32 %37, 1
  store i32 %38, ptr %36, align 1
  br label %39

39:                                               ; preds = %35, %29
  %40 = load ptr, ptr %5, align 8
  %41 = getelementptr inbounds nuw %struct.WaitEvent, ptr %40, i32 0, i32 1
  %42 = load i32, ptr %41, align 4
  %43 = and i32 %42, 4
  %44 = icmp ne i32 %43, 0
  br i1 %44, label %45, label %49

45:                                               ; preds = %39
  %46 = getelementptr inbounds nuw %struct.epoll_event, ptr %7, i32 0, i32 0
  %47 = load i32, ptr %46, align 1
  %48 = or i32 %47, 4
  store i32 %48, ptr %46, align 1
  br label %49

49:                                               ; preds = %45, %39
  %50 = load ptr, ptr %5, align 8
  %51 = getelementptr inbounds nuw %struct.WaitEvent, ptr %50, i32 0, i32 1
  %52 = load i32, ptr %51, align 4
  %53 = and i32 %52, 128
  %54 = icmp ne i32 %53, 0
  br i1 %54, label %55, label %59

55:                                               ; preds = %49
  %56 = getelementptr inbounds nuw %struct.epoll_event, ptr %7, i32 0, i32 0
  %57 = load i32, ptr %56, align 1
  %58 = or i32 %57, 8192
  store i32 %58, ptr %56, align 1
  br label %59

59:                                               ; preds = %55, %49
  br label %60

60:                                               ; preds = %59, %25
  br label %61

61:                                               ; preds = %60, %16
  %62 = load ptr, ptr %4, align 8
  %63 = getelementptr inbounds nuw %struct.WaitEventSet, ptr %62, i32 0, i32 7
  %64 = load i32, ptr %63, align 8
  %65 = load i32, ptr %6, align 4
  %66 = load ptr, ptr %5, align 8
  %67 = getelementptr inbounds nuw %struct.WaitEvent, ptr %66, i32 0, i32 2
  %68 = load i32, ptr %67, align 8
  %69 = call i32 @epoll_ctl(i32 noundef %64, i32 noundef %65, i32 noundef %68, ptr noundef %7) #9
  store i32 %69, ptr %8, align 4
  %70 = load i32, ptr %8, align 4
  %71 = icmp slt i32 %70, 0
  br i1 %71, label %72, label %84

72:                                               ; preds = %61
  br label %73

73:                                               ; preds = %72
  br i1 true, label %74, label %76

74:                                               ; preds = %73
  %75 = call zeroext i1 @errstart_cold(i32 noundef 21, ptr noundef null) #10
  br i1 %75, label %78, label %81

76:                                               ; preds = %73
  %77 = call zeroext i1 @errstart(i32 noundef 21, ptr noundef null)
  br i1 %77, label %78, label %81

78:                                               ; preds = %76, %74
  %79 = call i32 @errcode_for_socket_access()
  %80 = call i32 (ptr, ...) @errmsg(ptr noundef @.str.13, ptr noundef @.str.14)
  call void @errfinish(ptr noundef @.str.1, i32 noundef 1164, ptr noundef @__func__.WaitEventAdjustEpoll)
  br label %81

81:                                               ; preds = %78, %76, %74
  unreachable

82:                                               ; No predecessors!
  br label %83

83:                                               ; preds = %82
  br label %84

84:                                               ; preds = %83, %61
  call void @llvm.lifetime.end.p0(i64 4, ptr %8) #9
  call void @llvm.lifetime.end.p0(i64 12, ptr %7) #9
  ret void
}