; Function Attrs: nounwind uwtable
define internal fastcc void @WaitEventAdjustEpoll(ptr noundef readonly captures(none) %0, ptr noundef %1, i32 noundef range(i32 1, 4) %2) unnamed_addr #0 {
  %4 = alloca %struct.epoll_event, align 4
  call void @llvm.lifetime.start.p0(i64 12, ptr nonnull %4) #14
  %5 = getelementptr inbounds nuw i8, ptr %4, i64 4
  store ptr %1, ptr %5, align 4
  store i32 24, ptr %4, align 4
  %6 = getelementptr inbounds nuw i8, ptr %1, i64 4
  %7 = load i32, ptr %6, align 4
  switch i32 %7, label %condstore.split [
    i32 1, label %.sink.split
    i32 16, label %.sink.split
  ]

condstore.split:                                  ; preds = %3
  %8 = and i32 %7, 2
  %.not.not = icmp eq i32 %8, 0
  %9 = select i1 %.not.not, i32 24, i32 25
  %10 = and i32 %7, 4
  %11 = or disjoint i32 %9, %10
  %12 = shl i32 %7, 6
  %13 = and i32 %12, 8192
  %spec.select = or disjoint i32 %11, %13
  %14 = and i32 %7, 134
  %.not = icmp eq i32 %14, 0
  br i1 %.not, label %15, label %.sink.split

.sink.split:                                      ; preds = %condstore.split, %3, %3
  %spec.select.sink = phi i32 [ 25, %3 ], [ 25, %3 ], [ %spec.select, %condstore.split ]
  store i32 %spec.select.sink, ptr %4, align 4
  br label %15

15:                                               ; preds = %.sink.split, %condstore.split
  %16 = getelementptr inbounds nuw i8, ptr %0, i64 40
  %17 = load i32, ptr %16, align 8
  %18 = getelementptr inbounds nuw i8, ptr %1, i64 8
  %19 = load i32, ptr %18, align 8
  %20 = call i32 @epoll_ctl(i32 noundef %17, i32 noundef %2, i32 noundef %19, ptr noundef nonnull %4) #14
  %21 = icmp slt i32 %20, 0
  br i1 %21, label %22, label %26

22:                                               ; preds = %15
  %23 = call zeroext i1 @errstart_cold(i32 noundef 21, ptr noundef null) #15
  call void @llvm.assume(i1 %23)
  %24 = call i32 @errcode_for_socket_access() #14
  %25 = call i32 (ptr, ...) @errmsg(ptr noundef nonnull @.str.13, ptr noundef nonnull @.str.14) #14
  call void @errfinish(ptr noundef nonnull @.str.1, i32 noundef 1164, ptr noundef nonnull @__func__.WaitEventAdjustEpoll) #14
  unreachable

26:                                               ; preds = %15
  call void @llvm.lifetime.end.p0(i64 12, ptr nonnull %4) #14
  ret void
}